; ModuleID = '56/1284.c'
source_filename = "56/1284.c"
target datalayout = "e-m:e-p270:32:32-p271:32:32-p272:64:64-i64:64-f80:128-n8:16:32:64-S128"
target triple = "x86_64-pc-linux-gnu"

@.str = private unnamed_addr constant [3 x i8] c"%d\00", align 1
@.str.1 = private unnamed_addr constant [11 x i8] c"%d%d%d%d%d\00", align 1
@.str.2 = private unnamed_addr constant [9 x i8] c"%d%d%d%d\00", align 1
@.str.3 = private unnamed_addr constant [7 x i8] c"%d%d%d\00", align 1
@.str.4 = private unnamed_addr constant [5 x i8] c"%d%d\00", align 1

; Function Attrs: noinline nounwind uwtable
define dso_local void @main() #0 {
  %1 = alloca i32, align 4
  %2 = alloca i32, align 4
  %3 = alloca i32, align 4
  %4 = alloca i32, align 4
  %5 = alloca i32, align 4
  %6 = alloca i32, align 4
  %7 = call i32 (i8*, ...) @__isoc99_scanf(i8* getelementptr inbounds ([3 x i8], [3 x i8]* @.str, i64 0, i64 0), i32* %1)
  %8 = load i32, i32* %1, align 4
  %9 = sdiv i32 %8, 10000
  store i32 %9, i32* %2, align 4
  %10 = load i32, i32* %1, align 4
  %11 = load i32, i32* %2, align 4
  %12 = mul nsw i32 %11, 10000
  %13 = sub nsw i32 %10, %12
  %14 = sdiv i32 %13, 1000
  store i32 %14, i32* %3, align 4
  %15 = load i32, i32* %1, align 4
  %16 = load i32, i32* %2, align 4
  %17 = mul nsw i32 %16, 10000
  %18 = sub nsw i32 %15, %17
  %19 = load i32, i32* %3, align 4
  %20 = mul nsw i32 %19, 1000
  %21 = sub nsw i32 %18, %20
  %22 = sdiv i32 %21, 100
  store i32 %22, i32* %4, align 4
  %23 = load i32, i32* %1, align 4
  %24 = load i32, i32* %2, align 4
  %25 = mul nsw i32 %24, 10000
  %26 = sub nsw i32 %23, %25
  %27 = load i32, i32* %3, align 4
  %28 = mul nsw i32 %27, 1000
  %29 = sub nsw i32 %26, %28
  %30 = load i32, i32* %4, align 4
  %31 = mul nsw i32 %30, 100
  %32 = sub nsw i32 %29, %31
  %33 = sdiv i32 %32, 10
  store i32 %33, i32* %5, align 4
  %34 = load i32, i32* %1, align 4
  %35 = load i32, i32* %2, align 4
  %36 = mul nsw i32 %35, 10000
  %37 = sub nsw i32 %34, %36
  %38 = load i32, i32* %3, align 4
  %39 = mul nsw i32 %38, 1000
  %40 = sub nsw i32 %37, %39
  %41 = load i32, i32* %4, align 4
  %42 = mul nsw i32 %41, 100
  %43 = sub nsw i32 %40, %42
  %44 = load i32, i32* %5, align 4
  %45 = mul nsw i32 %44, 10
  %46 = sub nsw i32 %43, %45
  store i32 %46, i32* %6, align 4
  %47 = load i32, i32* %2, align 4
  %48 = icmp ne i32 %47, 0
  br i1 %48, label %49, label %56

49:                                               ; preds = %0
  %50 = load i32, i32* %6, align 4
  %51 = load i32, i32* %5, align 4
  %52 = load i32, i32* %4, align 4
  %53 = load i32, i32* %3, align 4
  %54 = load i32, i32* %2, align 4
  %55 = call i32 (i8*, ...) @printf(i8* getelementptr inbounds ([11 x i8], [11 x i8]* @.str.1, i64 0, i64 0), i32 %50, i32 %51, i32 %52, i32 %53, i32 %54)
  br label %86

56:                                               ; preds = %0
  %57 = load i32, i32* %3, align 4
  %58 = icmp ne i32 %57, 0
  br i1 %58, label %59, label %65

59:                                               ; preds = %56
  %60 = load i32, i32* %6, align 4
  %61 = load i32, i32* %5, align 4
  %62 = load i32, i32* %4, align 4
  %63 = load i32, i32* %3, align 4
  %64 = call i32 (i8*, ...) @printf(i8* getelementptr inbounds ([9 x i8], [9 x i8]* @.str.2, i64 0, i64 0), i32 %60, i32 %61, i32 %62, i32 %63)
  br label %85

65:                                               ; preds = %56
  %66 = load i32, i32* %4, align 4
  %67 = icmp ne i32 %66, 0
  br i1 %67, label %68, label %73

68:                                               ; preds = %65
  %69 = load i32, i32* %6, align 4
  %70 = load i32, i32* %5, align 4
  %71 = load i32, i32* %4, align 4
  %72 = call i32 (i8*, ...) @printf(i8* getelementptr inbounds ([7 x i8], [7 x i8]* @.str.3, i64 0, i64 0), i32 %69, i32 %70, i32 %71)
  br label %84

73:                                               ; preds = %65
  %74 = load i32, i32* %5, align 4
  %75 = icmp ne i32 %74, 0
  br i1 %75, label %76, label %80

76:                                               ; preds = %73
  %77 = load i32, i32* %6, align 4
  %78 = load i32, i32* %5, align 4
  %79 = call i32 (i8*, ...) @printf(i8* getelementptr inbounds ([5 x i8], [5 x i8]* @.str.4, i64 0, i64 0), i32 %77, i32 %78)
  br label %83

80:                                               ; preds = %73
  %81 = load i32, i32* %6, align 4
  %82 = call i32 (i8*, ...) @printf(i8* getelementptr inbounds ([3 x i8], [3 x i8]* @.str, i64 0, i64 0), i32 %81)
  br label %83

83:                                               ; preds = %80, %76
  br label %84

84:                                               ; preds = %83, %68
  br label %85

85:                                               ; preds = %84, %59
  br label %86

86:                                               ; preds = %85, %49
  ret void
}

declare dso_local i32 @__isoc99_scanf(i8*, ...) #1

declare dso_local i32 @printf(i8*, ...) #1


!llvm.module.flags = !{!0}
!llvm.ident = !{!1}

!0 = !{i32 1, !"wchar_size", i32 4}
!1 = !{!"clang version 10.0.0-4ubuntu1 "}
